; Function Attrs: nounwind uwtable
define dso_local ptr @PyList_AsTuple(ptr noundef readonly %0) local_unnamed_addr #0 {
  %2 = icmp eq ptr %0, null
  br i1 %2, label %7, label %3

3:                                                ; preds = %1
  %4 = getelementptr i8, ptr %0, i64 8
  %.val8 = load ptr, ptr %4, align 8, !tbaa !105
  %5 = getelementptr i8, ptr %.val8, i64 168
  %.val9 = load i64, ptr %5, align 8, !tbaa !106
  %6 = and i64 %.val9, 33554432
  %.not = icmp eq i64 %6, 0
  br i1 %.not, label %7, label %8

7:                                                ; preds = %3, %1
  tail call void @_PyErr_BadInternalCall(ptr noundef nonnull @.str.1, i32 noundef 3162) #12
  br label %13

8:                                                ; preds = %3
  %9 = getelementptr inbounds nuw i8, ptr %0, i64 24
  %10 = load ptr, ptr %9, align 8, !tbaa !27
  %11 = getelementptr i8, ptr %0, i64 16
  %.val = load i64, ptr %11, align 8, !tbaa !33
  %12 = tail call ptr @_PyTuple_FromArray(ptr noundef %10, i64 noundef %.val) #12
  br label %13

13:                                               ; preds = %8, %7
  %.0 = phi ptr [ null, %7 ], [ %12, %8 ]
  ret ptr %.0
}